; Function Attrs: mustprogress uwtable
define void @cvCreateSeqBlock(ptr noundef %0) local_unnamed_addr #0 personality ptr @__gxx_personality_v0 {
  %2 = alloca %"class.std::__cxx11::basic_string", align 8
  %3 = alloca %"class.std::allocator", align 1
  %.not = icmp eq ptr %0, null
  br i1 %.not, label %7, label %4

4:                                                ; preds = %1
  %5 = getelementptr inbounds nuw i8, ptr %0, i64 8
  %6 = load ptr, ptr %5, align 8, !tbaa !73
  %.not15 = icmp eq ptr %6, null
  br i1 %.not15, label %7, label %17

7:                                                ; preds = %4, %1
  call void @llvm.lifetime.start.p0(i64 32, ptr nonnull %2) #11
  call void @llvm.lifetime.start.p0(i64 1, ptr nonnull %3) #11
  call void @_ZNSt7__cxx1112basic_stringIcSt11char_traitsIcESaIcEEC2EPKcRKS3_(ptr noundef nonnull align 8 dereferenceable(32) %2, ptr noundef nonnull @.str, ptr noundef nonnull align 1 dereferenceable(1) %3)
  invoke void @_ZN2cv5errorEiRKNSt7__cxx1112basic_stringIcSt11char_traitsIcESaIcEEEPKcS9_i(i32 noundef -27, ptr noundef nonnull align 8 dereferenceable(32) %2, ptr noundef nonnull @__func__.cvCreateSeqBlock, ptr noundef nonnull @.str.1, i32 noundef 912) #12
          to label %8 unwind label %9

8:                                                ; preds = %7
  unreachable

9:                                                ; preds = %7
  %10 = landingpad { ptr, i32 }
          cleanup
  %11 = load ptr, ptr %2, align 8, !tbaa !3
  %12 = getelementptr inbounds nuw i8, ptr %2, i64 16
  %13 = icmp eq ptr %11, %12
  br i1 %13, label %_ZNKSt7__cxx1112basic_stringIcSt11char_traitsIcESaIcEE11_M_is_localEv.exit.thread.i.i, label %_ZNKSt7__cxx1112basic_stringIcSt11char_traitsIcESaIcEE11_M_is_localEv.exit.i.i

_ZNKSt7__cxx1112basic_stringIcSt11char_traitsIcESaIcEE11_M_is_localEv.exit.thread.i.i: ; preds = %9
  %14 = getelementptr inbounds nuw i8, ptr %2, i64 8
  %15 = load i64, ptr %14, align 8, !tbaa !11
  %16 = icmp ult i64 %15, 16
  call void @llvm.assume(i1 %16)
  br label %_ZNSt7__cxx1112basic_stringIcSt11char_traitsIcESaIcEED2Ev.exit

_ZNKSt7__cxx1112basic_stringIcSt11char_traitsIcESaIcEE11_M_is_localEv.exit.i.i: ; preds = %9
  call void @_ZdlPv(ptr noundef %11) #13
  br label %_ZNSt7__cxx1112basic_stringIcSt11char_traitsIcESaIcEED2Ev.exit

_ZNSt7__cxx1112basic_stringIcSt11char_traitsIcESaIcEED2Ev.exit: ; preds = %_ZNKSt7__cxx1112basic_stringIcSt11char_traitsIcESaIcEE11_M_is_localEv.exit.i.i, %_ZNKSt7__cxx1112basic_stringIcSt11char_traitsIcESaIcEE11_M_is_localEv.exit.thread.i.i
  call void @llvm.lifetime.end.p0(i64 1, ptr nonnull %3) #11
  call void @llvm.lifetime.end.p0(i64 32, ptr nonnull %2) #11
  resume { ptr, i32 } %10

17:                                               ; preds = %4
  tail call void @cvFlushSeqWriter(ptr noundef nonnull %0)
  tail call fastcc void @_ZL10icvGrowSeqP5CvSeqi(ptr noundef %6, i32 noundef 0)
  %18 = getelementptr inbounds nuw i8, ptr %6, i64 88
  %19 = load ptr, ptr %18, align 8, !tbaa !43
  %20 = load ptr, ptr %19, align 8, !tbaa !48
  %21 = getelementptr inbounds nuw i8, ptr %0, i64 16
  store ptr %20, ptr %21, align 8, !tbaa !74
  %22 = getelementptr inbounds nuw i8, ptr %6, i64 56
  %23 = load ptr, ptr %22, align 8, !tbaa !69
  %24 = getelementptr inbounds nuw i8, ptr %0, i64 24
  store ptr %23, ptr %24, align 8, !tbaa !75
  %25 = getelementptr inbounds nuw i8, ptr %6, i64 48
  %26 = load ptr, ptr %25, align 8, !tbaa !70
  %27 = getelementptr inbounds nuw i8, ptr %0, i64 40
  store ptr %26, ptr %27, align 8, !tbaa !76
  ret void
}